target datalayout = "e-m:e-p270:32:32-p271:32:32-p272:64:64-i64:64-i128:128-f80:128-n8:16:32:64-S128"
target triple = "x86_64-pc-linux-gnu"

%struct.AVCodecContext = type { ptr, i32, i32, ptr, i32, i32, ptr, ptr, ptr, i64, i32, i32, ptr, i32, %struct.AVRational, %struct.AVRational, %struct.AVRational, i32, i32, i32, i32, i32, %struct.AVRational, i32, i32, i32, i32, i32, i32, i32, i32, i32, i32, i32, ptr, ptr, i32, float, float, float, float, float, float, float, float, float, i32, i32, i32, i32, i32, i32, i32, i32, i32, i32, i32, i32, ptr, ptr, ptr, i32, i32, i32, i32, i32, i32, i32, i32, i32, i32, %struct.AVChannelLayout, i32, i32, i32, i32, i32, i32, i32, i32, ptr, i32, i32, i32, float, float, i32, i32, i32, i32, i32, ptr, i64, i64, float, float, i32, i32, ptr, ptr, i32, i32, i32, i32, i32, ptr, ptr, ptr, ptr, i32, i32, [8 x i64], i32, i32, i32, i32, i32, i32, i32, ptr, ptr, i32, i32, i32, i32, i32, i32, i32, i32, i32, i32, ptr, ptr, i32, i32, ptr, ptr, ptr, ptr, i32, i32, i64, i32, i32, i64, ptr, i64, ptr, i32, ptr, i32 }
%struct.AVRational = type { i32, i32 }
%struct.AVChannelLayout = type { i32, i32, %union.anon.1, ptr }
%union.anon.1 = type { i64 }
%struct.FLACContext = type { ptr, %struct.FLACStreaminfo, ptr, %struct.GetBitContext, i32, i32, i32, i32, [8 x ptr], ptr, i32, ptr, ptr, i32, i32, %struct.FLACDSPContext }
%struct.FLACStreaminfo = type { i32, i32, i32, i32, i32, i64 }
%struct.GetBitContext = type { ptr, ptr, i32, i32, i32 }
%struct.FLACDSPContext = type { [4 x ptr], ptr, ptr, ptr, ptr, ptr }

; Function Attrs: nounwind uwtable
define internal void @flac_set_bps(ptr noundef %0) #1 {
  %2 = alloca ptr, align 8
  %3 = alloca i32, align 4
  %4 = alloca i32, align 4
  %5 = alloca i32, align 4
  %6 = alloca i32, align 4
  store ptr %0, ptr %2, align 8, !tbaa !29
  call void @llvm.lifetime.start.p0(i64 4, ptr %3) #11
  %7 = load ptr, ptr %2, align 8, !tbaa !29
  %8 = getelementptr inbounds nuw %struct.FLACContext, ptr %7, i32 0, i32 2
  %9 = load ptr, ptr %8, align 8, !tbaa !31
  %10 = getelementptr inbounds nuw %struct.AVCodecContext, ptr %9, i32 0, i32 76
  %11 = load i32, ptr %10, align 8, !tbaa !68
  store i32 %11, ptr %3, align 4, !tbaa !39
  call void @llvm.lifetime.start.p0(i64 4, ptr %4) #11
  %12 = load ptr, ptr %2, align 8, !tbaa !29
  %13 = getelementptr inbounds nuw %struct.FLACContext, ptr %12, i32 0, i32 1
  %14 = getelementptr inbounds nuw %struct.FLACStreaminfo, ptr %13, i32 0, i32 2
  %15 = load i32, ptr %14, align 8, !tbaa !60
  %16 = icmp sgt i32 %15, 16
  %17 = zext i1 %16 to i32
  store i32 %17, ptr %4, align 4, !tbaa !39
  call void @llvm.lifetime.start.p0(i64 4, ptr %5) #11
  %18 = load i32, ptr %3, align 4, !tbaa !39
  %19 = call i32 @av_get_bytes_per_sample(i32 noundef %18)
  %20 = icmp sgt i32 %19, 2
  %21 = zext i1 %20 to i32
  store i32 %21, ptr %5, align 4, !tbaa !39
  call void @llvm.lifetime.start.p0(i64 4, ptr %6) #11
  %22 = load i32, ptr %3, align 4, !tbaa !39
  %23 = call i32 @av_sample_fmt_is_planar(i32 noundef %22)
  store i32 %23, ptr %6, align 4, !tbaa !39
  %24 = load i32, ptr %4, align 4, !tbaa !39
  %25 = icmp ne i32 %24, 0
  br i1 %25, label %29, label %26

26:                                               ; preds = %1
  %27 = load i32, ptr %5, align 4, !tbaa !39
  %28 = icmp ne i32 %27, 0
  br i1 %28, label %29, label %50

29:                                               ; preds = %26, %1
  %30 = load i32, ptr %6, align 4, !tbaa !39
  %31 = icmp ne i32 %30, 0
  br i1 %31, label %32, label %37

32:                                               ; preds = %29
  %33 = load ptr, ptr %2, align 8, !tbaa !29
  %34 = getelementptr inbounds nuw %struct.FLACContext, ptr %33, i32 0, i32 2
  %35 = load ptr, ptr %34, align 8, !tbaa !31
  %36 = getelementptr inbounds nuw %struct.AVCodecContext, ptr %35, i32 0, i32 70
  store i32 7, ptr %36, align 4, !tbaa !40
  br label %42

37:                                               ; preds = %29
  %38 = load ptr, ptr %2, align 8, !tbaa !29
  %39 = getelementptr inbounds nuw %struct.FLACContext, ptr %38, i32 0, i32 2
  %40 = load ptr, ptr %39, align 8, !tbaa !31
  %41 = getelementptr inbounds nuw %struct.AVCodecContext, ptr %40, i32 0, i32 70
  store i32 2, ptr %41, align 4, !tbaa !40
  br label %42

42:                                               ; preds = %37, %32
  %43 = load ptr, ptr %2, align 8, !tbaa !29
  %44 = getelementptr inbounds nuw %struct.FLACContext, ptr %43, i32 0, i32 1
  %45 = getelementptr inbounds nuw %struct.FLACStreaminfo, ptr %44, i32 0, i32 2
  %46 = load i32, ptr %45, align 8, !tbaa !60
  %47 = sub nsw i32 32, %46
  %48 = load ptr, ptr %2, align 8, !tbaa !29
  %49 = getelementptr inbounds nuw %struct.FLACContext, ptr %48, i32 0, i32 5
  store i32 %47, ptr %49, align 4, !tbaa !64
  br label %71

50:                                               ; preds = %26
  %51 = load i32, ptr %6, align 4, !tbaa !39
  %52 = icmp ne i32 %51, 0
  br i1 %52, label %53, label %58

53:                                               ; preds = %50
  %54 = load ptr, ptr %2, align 8, !tbaa !29
  %55 = getelementptr inbounds nuw %struct.FLACContext, ptr %54, i32 0, i32 2
  %56 = load ptr, ptr %55, align 8, !tbaa !31
  %57 = getelementptr inbounds nuw %struct.AVCodecContext, ptr %56, i32 0, i32 70
  store i32 6, ptr %57, align 4, !tbaa !40
  br label %63

58:                                               ; preds = %50
  %59 = load ptr, ptr %2, align 8, !tbaa !29
  %60 = getelementptr inbounds nuw %struct.FLACContext, ptr %59, i32 0, i32 2
  %61 = load ptr, ptr %60, align 8, !tbaa !31
  %62 = getelementptr inbounds nuw %struct.AVCodecContext, ptr %61, i32 0, i32 70
  store i32 1, ptr %62, align 4, !tbaa !40
  br label %63

63:                                               ; preds = %58, %53
  %64 = load ptr, ptr %2, align 8, !tbaa !29
  %65 = getelementptr inbounds nuw %struct.FLACContext, ptr %64, i32 0, i32 1
  %66 = getelementptr inbounds nuw %struct.FLACStreaminfo, ptr %65, i32 0, i32 2
  %67 = load i32, ptr %66, align 8, !tbaa !60
  %68 = sub nsw i32 16, %67
  %69 = load ptr, ptr %2, align 8, !tbaa !29
  %70 = getelementptr inbounds nuw %struct.FLACContext, ptr %69, i32 0, i32 5
  store i32 %68, ptr %70, align 4, !tbaa !64
  br label %71

71:                                               ; preds = %63, %42
  call void @llvm.lifetime.end.p0(i64 4, ptr %6) #11
  call void @llvm.lifetime.end.p0(i64 4, ptr %5) #11
  call void @llvm.lifetime.end.p0(i64 4, ptr %4) #11
  call void @llvm.lifetime.end.p0(i64 4, ptr %3) #11
  ret void
}

; Function Attrs: cold nounwind optsize uwtable
define internal i32 @flac_decode_init(ptr noundef %0) #0 {
  %2 = alloca i32, align 4
  %3 = alloca ptr, align 8
  %4 = alloca ptr, align 8
  %5 = alloca i32, align 4
  %6 = alloca ptr, align 8
  %7 = alloca i32, align 4
  store ptr %0, ptr %3, align 8, !tbaa !4
  call void @llvm.lifetime.start.p0(i64 8, ptr %4) #11
  call void @llvm.lifetime.start.p0(i64 4, ptr %5) #11
  call void @llvm.lifetime.start.p0(i64 8, ptr %6) #11
  %8 = load ptr, ptr %3, align 8, !tbaa !4
  %9 = getelementptr inbounds nuw %struct.AVCodecContext, ptr %8, i32 0, i32 6
  %10 = load ptr, ptr %9, align 8, !tbaa !9
  store ptr %10, ptr %6, align 8, !tbaa !29
  %11 = load ptr, ptr %3, align 8, !tbaa !4
  %12 = load ptr, ptr %6, align 8, !tbaa !29
  %13 = getelementptr inbounds nuw %struct.FLACContext, ptr %12, i32 0, i32 2
  store ptr %11, ptr %13, align 8, !tbaa !31
  %14 = load ptr, ptr %3, align 8, !tbaa !4
  %15 = getelementptr inbounds nuw %struct.AVCodecContext, ptr %14, i32 0, i32 12
  %16 = load ptr, ptr %15, align 8, !tbaa !37
  %17 = icmp ne ptr %16, null
  br i1 %17, label %19, label %18

18:                                               ; preds = %1
  store i32 0, ptr %2, align 4
  store i32 1, ptr %7, align 4
  br label %54

19:                                               ; preds = %1
  %20 = load ptr, ptr %3, align 8, !tbaa !4
  %21 = call i32 @ff_flac_is_extradata_valid(ptr noundef %20, ptr noundef %4)
  %22 = icmp ne i32 %21, 0
  br i1 %22, label %24, label %23

23:                                               ; preds = %19
  store i32 -1094995529, ptr %2, align 4
  store i32 1, ptr %7, align 4
  br label %54

24:                                               ; preds = %19
  %25 = load ptr, ptr %3, align 8, !tbaa !4
  %26 = load ptr, ptr %6, align 8, !tbaa !29
  %27 = getelementptr inbounds nuw %struct.FLACContext, ptr %26, i32 0, i32 1
  %28 = load ptr, ptr %4, align 8, !tbaa !38
  %29 = call i32 @ff_flac_parse_streaminfo(ptr noundef %25, ptr noundef %27, ptr noundef %28)
  store i32 %29, ptr %5, align 4, !tbaa !39
  %30 = load i32, ptr %5, align 4, !tbaa !39
  %31 = icmp slt i32 %30, 0
  br i1 %31, label %32, label %34

32:                                               ; preds = %24
  %33 = load i32, ptr %5, align 4, !tbaa !39
  store i32 %33, ptr %2, align 4
  store i32 1, ptr %7, align 4
  br label %54

34:                                               ; preds = %24
  %35 = load ptr, ptr %6, align 8, !tbaa !29
  %36 = call i32 @allocate_buffers(ptr noundef %35)
  store i32 %36, ptr %5, align 4, !tbaa !39
  %37 = load i32, ptr %5, align 4, !tbaa !39
  %38 = icmp slt i32 %37, 0
  br i1 %38, label %39, label %41

39:                                               ; preds = %34
  %40 = load i32, ptr %5, align 4, !tbaa !39
  store i32 %40, ptr %2, align 4
  store i32 1, ptr %7, align 4
  br label %54

41:                                               ; preds = %34
  %42 = load ptr, ptr %6, align 8, !tbaa !29
  call void @flac_set_bps(ptr noundef %42)
  %43 = load ptr, ptr %6, align 8, !tbaa !29
  %44 = getelementptr inbounds nuw %struct.FLACContext, ptr %43, i32 0, i32 15
  %45 = load ptr, ptr %3, align 8, !tbaa !4
  %46 = getelementptr inbounds nuw %struct.AVCodecContext, ptr %45, i32 0, i32 70
  %47 = load i32, ptr %46, align 4, !tbaa !40
  %48 = load ptr, ptr %6, align 8, !tbaa !29
  %49 = getelementptr inbounds nuw %struct.FLACContext, ptr %48, i32 0, i32 1
  %50 = getelementptr inbounds nuw %struct.FLACStreaminfo, ptr %49, i32 0, i32 1
  %51 = load i32, ptr %50, align 4, !tbaa !41
  call void @ff_flacdsp_init(ptr noundef %44, i32 noundef %47, i32 noundef %51)
  %52 = load ptr, ptr %6, align 8, !tbaa !29
  %53 = getelementptr inbounds nuw %struct.FLACContext, ptr %52, i32 0, i32 7
  store i32 1, ptr %53, align 4, !tbaa !42
  store i32 0, ptr %2, align 4
  store i32 1, ptr %7, align 4
  br label %54

54:                                               ; preds = %41, %39, %32, %23, %18
  call void @llvm.lifetime.end.p0(i64 8, ptr %6) #11
  call void @llvm.lifetime.end.p0(i64 4, ptr %5) #11
  call void @llvm.lifetime.end.p0(i64 8, ptr %4) #11
  %55 = load i32, ptr %2, align 4
  ret i32 %55
}