; Function Attrs: cold nounwind optsize uwtable
define internal range(i32 -2147483648, 1) i32 @flac_decode_init(ptr noundef %0) #0 {
  %2 = alloca ptr, align 8
  call void @llvm.lifetime.start.p0(i64 8, ptr nonnull %2) #10
  %3 = getelementptr inbounds nuw i8, ptr %0, i64 32
  %4 = load ptr, ptr %3, align 8, !tbaa !4
  %5 = getelementptr inbounds nuw i8, ptr %4, i64 40
  store ptr %0, ptr %5, align 8, !tbaa !27
  %6 = getelementptr inbounds nuw i8, ptr %0, i64 72
  %7 = load ptr, ptr %6, align 8, !tbaa !34
  %.not = icmp eq ptr %7, null
  br i1 %.not, label %39, label %8

8:                                                ; preds = %1
  %9 = call i32 @ff_flac_is_extradata_valid(ptr noundef nonnull %0, ptr noundef nonnull %2) #10
  %.not19 = icmp eq i32 %9, 0
  br i1 %.not19, label %39, label %10

10:                                               ; preds = %8
  %11 = getelementptr inbounds nuw i8, ptr %4, i64 8
  %12 = load ptr, ptr %2, align 8, !tbaa !35
  %13 = call i32 @ff_flac_parse_streaminfo(ptr noundef nonnull %0, ptr noundef nonnull %11, ptr noundef %12) #10
  %14 = icmp slt i32 %13, 0
  br i1 %14, label %39, label %15

15:                                               ; preds = %10
  %16 = call fastcc i32 @allocate_buffers(ptr noundef nonnull %4)
  %17 = icmp slt i32 %16, 0
  br i1 %17, label %39, label %18

18:                                               ; preds = %15
  %19 = load ptr, ptr %5, align 8, !tbaa !27
  %20 = getelementptr inbounds nuw i8, ptr %19, i64 392
  %21 = load i32, ptr %20, align 8, !tbaa !36
  %22 = getelementptr inbounds nuw i8, ptr %4, i64 16
  %23 = load i32, ptr %22, align 8, !tbaa !37
  %24 = icmp sgt i32 %23, 16
  %25 = call i32 @av_get_bytes_per_sample(i32 noundef %21) #10
  %26 = icmp sgt i32 %25, 2
  %27 = call i32 @av_sample_fmt_is_planar(i32 noundef %21) #10
  %or.cond.i = select i1 %24, i1 true, i1 %26
  %.not16.i = icmp eq i32 %27, 0
  %28 = load ptr, ptr %5, align 8, !tbaa !27
  %29 = getelementptr inbounds nuw i8, ptr %28, i64 348
  %.22.i = select i1 %.not16.i, i32 1, i32 6
  %..i = select i1 %.not16.i, i32 2, i32 7
  %.22.sink.i = select i1 %or.cond.i, i32 %..i, i32 %.22.i
  %.sink20.i = select i1 %or.cond.i, i32 32, i32 16
  store i32 %.22.sink.i, ptr %29, align 4, !tbaa !38
  %30 = load i32, ptr %22, align 8, !tbaa !37
  %31 = sub nsw i32 %.sink20.i, %30
  %32 = getelementptr inbounds nuw i8, ptr %4, i64 84
  store i32 %31, ptr %32, align 4, !tbaa !39
  %33 = getelementptr inbounds nuw i8, ptr %4, i64 200
  %34 = getelementptr inbounds nuw i8, ptr %0, i64 348
  %35 = load i32, ptr %34, align 4, !tbaa !38
  %36 = getelementptr inbounds nuw i8, ptr %4, i64 12
  %37 = load i32, ptr %36, align 4, !tbaa !40
  call void @ff_flacdsp_init(ptr noundef nonnull %33, i32 noundef %35, i32 noundef %37) #10
  %38 = getelementptr inbounds nuw i8, ptr %4, i64 92
  store i32 1, ptr %38, align 4, !tbaa !41
  br label %39

39:                                               ; preds = %15, %10, %8, %1, %18
  %.0 = phi i32 [ 0, %18 ], [ 0, %1 ], [ -1094995529, %8 ], [ %13, %10 ], [ %16, %15 ]
  call void @llvm.lifetime.end.p0(i64 8, ptr nonnull %2) #10
  ret i32 %.0
}